target datalayout = "e-m:e-p270:32:32-p271:32:32-p272:64:64-i64:64-i128:128-f80:128-n8:16:32:64-S128"
target triple = "x86_64-pc-linux-gnu"

%union.__CONST_SOCKADDR_ARG = type { ptr }
%struct.sockaddr_un = type { i16, [108 x i8] }

@.str.21 = private unnamed_addr constant [13 x i8] c"%s: [%s]: %s\00", align 1
@__func__.slurm_open_unix_stream = private unnamed_addr constant [23 x i8] c"slurm_open_unix_stream\00", align 1
@.str.22 = private unnamed_addr constant [30 x i8] c"%s: [%s]: socket() failed: %m\00", align 1
@.str.23 = private unnamed_addr constant [31 x i8] c"%s: [%s]: connect() failed: %m\00", align 1

; Function Attrs: nounwind uwtable
define dso_local i32 @slurm_open_unix_stream(ptr noundef %0, i32 noundef %1, ptr noundef %2) #0 {
  %4 = alloca i32, align 4
  %5 = alloca ptr, align 8
  %6 = alloca i32, align 4
  %7 = alloca ptr, align 8
  %8 = alloca %struct.sockaddr_un, align 2
  %9 = alloca i32, align 4
  %10 = alloca i32, align 4
  %11 = alloca %union.__CONST_SOCKADDR_ARG, align 8
  store ptr %0, ptr %5, align 8
  store i32 %1, ptr %6, align 4
  store ptr %2, ptr %7, align 8
  call void @llvm.lifetime.start.p0(i64 110, ptr %8) #9
  call void @llvm.lifetime.start.p0(i64 4, ptr %9) #9
  %12 = load ptr, ptr %5, align 8
  %13 = call i64 @strlen(ptr noundef %12) #11
  %14 = icmp uge i64 %13, 108
  br i1 %14, label %15, label %21

15:                                               ; preds = %3
  store i32 4030, ptr %9, align 4
  %16 = load ptr, ptr %5, align 8
  %17 = load i32, ptr %9, align 4
  %18 = call ptr @slurm_strerror(i32 noundef %17)
  %19 = call i32 (ptr, ...) @error(ptr noundef @.str.21, ptr noundef @__func__.slurm_open_unix_stream, ptr noundef %16, ptr noundef %18)
  %20 = load i32, ptr %9, align 4
  store i32 %20, ptr %4, align 4
  store i32 1, ptr %10, align 4
  br label %78

21:                                               ; preds = %3
  %22 = load i32, ptr %6, align 4
  %23 = or i32 1, %22
  %24 = call i32 @socket(i32 noundef 1, i32 noundef %23, i32 noundef 0) #9
  %25 = load ptr, ptr %7, align 8
  store i32 %24, ptr %25, align 4
  %26 = icmp slt i32 %24, 0
  br i1 %26, label %27, label %33

27:                                               ; preds = %21
  %28 = call ptr @__errno_location() #10
  %29 = load i32, ptr %28, align 4
  store i32 %29, ptr %9, align 4
  %30 = load ptr, ptr %5, align 8
  %31 = call i32 (ptr, ...) @error(ptr noundef @.str.22, ptr noundef @__func__.slurm_open_unix_stream, ptr noundef %30)
  %32 = load i32, ptr %9, align 4
  store i32 %32, ptr %4, align 4
  store i32 1, ptr %10, align 4
  br label %78

33:                                               ; preds = %21
  call void @llvm.memset.p0.i64(ptr align 2 %8, i8 0, i64 110, i1 false)
  %34 = getelementptr inbounds nuw %struct.sockaddr_un, ptr %8, i32 0, i32 0
  store i16 1, ptr %34, align 2
  %35 = getelementptr inbounds nuw %struct.sockaddr_un, ptr %8, i32 0, i32 1
  %36 = getelementptr inbounds [108 x i8], ptr %35, i64 0, i64 0
  %37 = load ptr, ptr %5, align 8
  %38 = call ptr @strcpy(ptr noundef %36, ptr noundef %37) #9
  br label %39

39:                                               ; preds = %57, %33
  %40 = load ptr, ptr %7, align 8
  %41 = load i32, ptr %40, align 4
  store ptr %8, ptr %11, align 8
  %42 = getelementptr inbounds nuw %struct.sockaddr_un, ptr %8, i32 0, i32 1
  %43 = getelementptr inbounds [108 x i8], ptr %42, i64 0, i64 0
  %44 = call i64 @strlen(ptr noundef %43) #11
  %45 = add i64 ptrtoint (ptr getelementptr inbounds nuw (%struct.sockaddr_un, ptr null, i32 0, i32 1) to i64), %44
  %46 = trunc i64 %45 to i32
  %47 = getelementptr inbounds nuw %union.__CONST_SOCKADDR_ARG, ptr %11, i32 0, i32 0
  %48 = load ptr, ptr %47, align 8
  %49 = call i32 @connect(i32 noundef %41, ptr %48, i32 noundef %46)
  store i32 %49, ptr %9, align 4
  %50 = icmp ne i32 %49, 0
  br i1 %50, label %51, label %55

51:                                               ; preds = %39
  %52 = call ptr @__errno_location() #10
  %53 = load i32, ptr %52, align 4
  %54 = icmp eq i32 %53, 4
  br label %55

55:                                               ; preds = %51, %39
  %56 = phi i1 [ false, %39 ], [ %54, %51 ]
  br i1 %56, label %57, label %58

57:                                               ; preds = %55
  br label %39, !llvm.loop !18

58:                                               ; preds = %55
  %59 = load i32, ptr %9, align 4
  %60 = icmp slt i32 %59, 0
  br i1 %60, label %61, label %76

61:                                               ; preds = %58
  %62 = call ptr @__errno_location() #10
  %63 = load i32, ptr %62, align 4
  store i32 %63, ptr %9, align 4
  br label %64

64:                                               ; preds = %61
  br label %65

65:                                               ; preds = %64
  %66 = call i32 @get_log_level()
  %67 = icmp sge i32 %66, 6
  br i1 %67, label %68, label %70

68:                                               ; preds = %65
  %69 = load ptr, ptr %5, align 8
  call void (i32, ptr, ...) @log_var(i32 noundef 6, ptr noundef @.str.23, ptr noundef @__func__.slurm_open_unix_stream, ptr noundef %69)
  br label %70

70:                                               ; preds = %68, %65
  br label %71

71:                                               ; preds = %70
  br label %72

72:                                               ; preds = %71
  br label %73

73:                                               ; preds = %72
  br label %74

74:                                               ; preds = %73
  %75 = load ptr, ptr %7, align 8
  call void @fd_close(ptr noundef %75)
  br label %76

76:                                               ; preds = %74, %58
  %77 = load i32, ptr %9, align 4
  store i32 %77, ptr %4, align 4
  store i32 1, ptr %10, align 4
  br label %78

78:                                               ; preds = %76, %27, %15
  call void @llvm.lifetime.end.p0(i64 4, ptr %9) #9
  call void @llvm.lifetime.end.p0(i64 110, ptr %8) #9
  %79 = load i32, ptr %4, align 4
  ret i32 %79
}