; Function Attrs: nounwind uwtable
define dso_local i32 @slurm_open_unix_stream(ptr noundef %0, i32 noundef %1, ptr noundef %2) local_unnamed_addr #0 {
  %4 = alloca %struct.sockaddr_un, align 2
  call void @llvm.lifetime.start.p0(i64 110, ptr nonnull %4) #11
  %5 = tail call i64 @strlen(ptr noundef nonnull dereferenceable(1) %0) #13
  %6 = icmp ugt i64 %5, 107
  br i1 %6, label %7, label %10

7:                                                ; preds = %3
  %8 = tail call ptr @slurm_strerror(i32 noundef 4030) #11
  %9 = tail call i32 (ptr, ...) @error(ptr noundef nonnull @.str.21, ptr noundef nonnull @__func__.slurm_open_unix_stream, ptr noundef nonnull %0, ptr noundef %8) #11
  br label %.critedge.thread

10:                                               ; preds = %3
  %11 = or i32 %1, 1
  %12 = tail call i32 @socket(i32 noundef 1, i32 noundef %11, i32 noundef 0) #11
  store i32 %12, ptr %2, align 4
  %13 = icmp slt i32 %12, 0
  br i1 %13, label %14, label %18

14:                                               ; preds = %10
  %15 = tail call ptr @__errno_location() #12
  %16 = load i32, ptr %15, align 4
  %17 = tail call i32 (ptr, ...) @error(ptr noundef nonnull @.str.22, ptr noundef nonnull @__func__.slurm_open_unix_stream, ptr noundef nonnull %0) #11
  br label %.critedge.thread

18:                                               ; preds = %10
  %19 = getelementptr inbounds nuw i8, ptr %4, i64 2
  call void @llvm.memset.p0.i64(ptr noundef nonnull align 2 dereferenceable(110) %19, i8 0, i64 108, i1 false)
  store i16 1, ptr %4, align 2
  %20 = getelementptr inbounds nuw i8, ptr %4, i64 2
  %21 = call ptr @strcpy(ptr noundef nonnull dereferenceable(1) %20, ptr noundef nonnull dereferenceable(1) %0) #11
  br label %22

22:                                               ; preds = %28, %18
  %23 = load i32, ptr %2, align 4
  %24 = call i64 @strlen(ptr noundef nonnull dereferenceable(1) %20) #13
  %25 = trunc i64 %24 to i32
  %26 = add i32 %25, 2
  %27 = call i32 @connect(i32 noundef %23, ptr nonnull %4, i32 noundef %26) #11
  %.not = icmp eq i32 %27, 0
  br i1 %.not, label %.critedge.thread, label %28

28:                                               ; preds = %22
  %29 = tail call ptr @__errno_location() #12
  %30 = load i32, ptr %29, align 4
  %31 = icmp eq i32 %30, 4
  br i1 %31, label %22, label %.critedge, !llvm.loop !16

.critedge:                                        ; preds = %28
  %32 = icmp slt i32 %27, 0
  br i1 %32, label %33, label %.critedge.thread

33:                                               ; preds = %.critedge
  %34 = call i32 @get_log_level() #11
  %35 = icmp sgt i32 %34, 5
  br i1 %35, label %36, label %37

36:                                               ; preds = %33
  call void (i32, ptr, ...) @log_var(i32 noundef 6, ptr noundef nonnull @.str.23, ptr noundef nonnull @__func__.slurm_open_unix_stream, ptr noundef nonnull %0) #11
  br label %37

37:                                               ; preds = %36, %33
  call void @fd_close(ptr noundef nonnull %2) #11
  br label %.critedge.thread

.critedge.thread:                                 ; preds = %22, %.critedge, %37, %14, %7
  %.0 = phi i32 [ 4030, %7 ], [ %16, %14 ], [ %30, %37 ], [ %27, %.critedge ], [ 0, %22 ]
  call void @llvm.lifetime.end.p0(i64 110, ptr nonnull %4) #11
  ret i32 %.0
}